target datalayout = "e-m:e-p270:32:32-p271:32:32-p272:64:64-i64:64-i128:128-f80:128-n8:16:32:64-S128"
target triple = "x86_64-pc-linux-gnu"

%struct.UConverterSharedData = type { i32, i32, ptr, ptr, i8, i8, ptr, i32, %struct.UConverterMBCSTable }
%struct.UConverterMBCSTable = type { i8, i8, i8, i32, ptr, ptr, ptr, ptr, ptr, ptr, [64 x i16], ptr, ptr, i32, i8, i8, i8, i16, i32, ptr, ptr, ptr, ptr }
%struct.UConverter = type { ptr, ptr, ptr, ptr, ptr, ptr, ptr, i32, i8, i8, i8, i8, i8, [7 x i8], i32, i32, i32, i32, i8, i8, i8, i8, i8, i8, i8, i8, [8 x i8], [32 x i8], [2 x i16], [2 x i16], [32 x i16], i32, [19 x i16], [31 x i8], i8, i8, i8, i32 }

; Function Attrs: mustprogress nounwind uwtable
define internal void @_ZL20ucnv_MBCSGetStartersPK10UConverterPaP10UErrorCode(ptr noundef %0, ptr noundef %1, ptr noundef %2) #4 {
  %4 = alloca ptr, align 8
  %5 = alloca ptr, align 8
  %6 = alloca ptr, align 8
  %7 = alloca ptr, align 8
  %8 = alloca i32, align 4
  store ptr %0, ptr %4, align 8, !tbaa !60
  store ptr %1, ptr %5, align 8, !tbaa !39
  store ptr %2, ptr %6, align 8, !tbaa !14
  call void @llvm.lifetime.start.p0(i64 8, ptr %7) #10
  call void @llvm.lifetime.start.p0(i64 4, ptr %8) #10
  %9 = load ptr, ptr %4, align 8, !tbaa !60
  %10 = getelementptr inbounds nuw %struct.UConverter, ptr %9, i32 0, i32 6
  %11 = load ptr, ptr %10, align 8, !tbaa !64
  %12 = getelementptr inbounds nuw %struct.UConverterSharedData, ptr %11, i32 0, i32 8
  %13 = getelementptr inbounds nuw %struct.UConverterMBCSTable, ptr %12, i32 0, i32 4
  %14 = load ptr, ptr %13, align 8, !tbaa !75
  %15 = load ptr, ptr %4, align 8, !tbaa !60
  %16 = getelementptr inbounds nuw %struct.UConverter, ptr %15, i32 0, i32 6
  %17 = load ptr, ptr %16, align 8, !tbaa !64
  %18 = getelementptr inbounds nuw %struct.UConverterSharedData, ptr %17, i32 0, i32 8
  %19 = getelementptr inbounds nuw %struct.UConverterMBCSTable, ptr %18, i32 0, i32 1
  %20 = load i8, ptr %19, align 1, !tbaa !80
  %21 = zext i8 %20 to i64
  %22 = getelementptr inbounds nuw [256 x i32], ptr %14, i64 %21
  %23 = getelementptr inbounds [256 x i32], ptr %22, i64 0, i64 0
  store ptr %23, ptr %7, align 8, !tbaa !41
  store i32 0, ptr %8, align 4, !tbaa !28
  br label %24

24:                                               ; preds = %39, %3
  %25 = load i32, ptr %8, align 4, !tbaa !28
  %26 = icmp slt i32 %25, 256
  br i1 %26, label %27, label %42

27:                                               ; preds = %24
  %28 = load ptr, ptr %7, align 8, !tbaa !41
  %29 = load i32, ptr %8, align 4, !tbaa !28
  %30 = sext i32 %29 to i64
  %31 = getelementptr inbounds i32, ptr %28, i64 %30
  %32 = load i32, ptr %31, align 4, !tbaa !28
  %33 = icmp sge i32 %32, 0
  %34 = zext i1 %33 to i8
  %35 = load ptr, ptr %5, align 8, !tbaa !39
  %36 = load i32, ptr %8, align 4, !tbaa !28
  %37 = sext i32 %36 to i64
  %38 = getelementptr inbounds i8, ptr %35, i64 %37
  store i8 %34, ptr %38, align 1, !tbaa !40
  br label %39

39:                                               ; preds = %27
  %40 = load i32, ptr %8, align 4, !tbaa !28
  %41 = add nsw i32 %40, 1
  store i32 %41, ptr %8, align 4, !tbaa !28
  br label %24, !llvm.loop !194

42:                                               ; preds = %24
  call void @llvm.lifetime.end.p0(i64 4, ptr %8) #10
  call void @llvm.lifetime.end.p0(i64 8, ptr %7) #10
  ret void
}