; Function Attrs: mustprogress nofree norecurse nosync nounwind memory(read, argmem: readwrite, inaccessiblemem: none) uwtable
define internal void @_ZL20ucnv_MBCSGetStartersPK10UConverterPaP10UErrorCode(ptr noundef readonly captures(none) %0, ptr noundef writeonly captures(none) %1, ptr readnone captures(none) %2) #7 {
  %4 = getelementptr inbounds nuw i8, ptr %0, i64 48
  %5 = load ptr, ptr %4, align 8, !tbaa !50
  %6 = getelementptr inbounds nuw i8, ptr %5, i64 56
  %7 = load ptr, ptr %6, align 8, !tbaa !88
  %8 = getelementptr inbounds nuw i8, ptr %5, i64 49
  %9 = load i8, ptr %8, align 1, !tbaa !76
  %10 = zext i8 %9 to i64
  %11 = getelementptr inbounds nuw [256 x i32], ptr %7, i64 %10
  br label %12

12:                                               ; preds = %3, %12
  %indvars.iv = phi i64 [ 0, %3 ], [ %indvars.iv.next, %12 ]
  %13 = getelementptr inbounds nuw i32, ptr %11, i64 %indvars.iv
  %14 = load i32, ptr %13, align 4, !tbaa !27
  %15 = icmp sgt i32 %14, -1
  %16 = zext i1 %15 to i8
  %17 = getelementptr inbounds nuw i8, ptr %1, i64 %indvars.iv
  store i8 %16, ptr %17, align 1, !tbaa !28
  %indvars.iv.next = add nuw nsw i64 %indvars.iv, 1
  %exitcond.not = icmp eq i64 %indvars.iv.next, 256
  br i1 %exitcond.not, label %18, label %12, !llvm.loop !172

18:                                               ; preds = %12
  ret void
}